; Function Attrs: nounwind uwtable
define dso_local noundef i32 @rewriteConfig(ptr nocapture noundef readonly %path, i32 noundef %force_write) local_unnamed_addr #2 {
entry:
  %call = tail call ptr @rewriteConfigReadOldFile(ptr noundef %path)
  %cmp = icmp eq ptr %call, null
  br i1 %cmp, label %return, label %if.end

if.end:                                           ; preds = %entry
  %tobool.not = icmp eq i32 %force_write, 0
  br i1 %tobool.not, label %if.end4, label %if.then2

if.then2:                                         ; preds = %if.end
  %force_write3 = getelementptr inbounds i8, ptr %call, i64 36
  store i32 1, ptr %force_write3, align 4
  br label %if.end4

if.end4:                                          ; preds = %if.then2, %if.end
  %0 = load ptr, ptr @configs, align 8
  %call5 = tail call ptr @dictGetIterator(ptr noundef %0) #24
  %call616 = tail call ptr @dictNext(ptr noundef %call5) #24
  %cmp7.not17 = icmp eq ptr %call616, null
  br i1 %cmp7.not17, label %while.end, label %while.body

while.body:                                       ; preds = %if.end4, %while.cond.backedge
  %call618 = phi ptr [ %call6, %while.cond.backedge ], [ %call616, %if.end4 ]
  %call8 = tail call ptr @dictGetVal(ptr noundef nonnull %call618) #24
  %flags = getelementptr inbounds i8, ptr %call8, i64 16
  %1 = load i32, ptr %flags, align 8
  %2 = and i32 %1, 128
  %tobool9.not = icmp eq i32 %2, 0
  br i1 %tobool9.not, label %if.end11, label %while.cond.backedge

if.end11:                                         ; preds = %while.body
  %rewrite = getelementptr inbounds i8, ptr %call8, i64 56
  %3 = load ptr, ptr %rewrite, align 8
  %tobool12.not = icmp eq ptr %3, null
  br i1 %tobool12.not, label %while.cond.backedge, label %if.then13

if.then13:                                        ; preds = %if.end11
  %call16 = tail call ptr @dictGetKey(ptr noundef nonnull %call618) #24
  tail call void %3(ptr noundef nonnull %call8, ptr noundef %call16, ptr noundef nonnull %call) #24
  br label %while.cond.backedge

while.cond.backedge:                              ; preds = %if.end11, %if.then13, %while.body
  %call6 = tail call ptr @dictNext(ptr noundef %call5) #24
  %cmp7.not = icmp eq ptr %call6, null
  br i1 %cmp7.not, label %while.end, label %while.body, !llvm.loop !43

while.end:                                        ; preds = %while.cond.backedge, %if.end4
  tail call void @dictReleaseIterator(ptr noundef %call5) #24
  tail call void @rewriteConfigUserOption(ptr noundef nonnull %call)
  tail call void @rewriteConfigLoadmoduleOption(ptr noundef nonnull %call)
  %4 = load i32, ptr getelementptr inbounds (%struct.redisServer, ptr @server, i64 0, i32 27), align 4
  %tobool18.not = icmp eq i32 %4, 0
  br i1 %tobool18.not, label %if.end20, label %if.then19

if.then19:                                        ; preds = %while.end
  tail call void @rewriteConfigSentinelOption(ptr noundef nonnull %call) #24
  br label %if.end20

if.end20:                                         ; preds = %if.then19, %while.end
  tail call void @rewriteConfigRemoveOrphaned(ptr noundef nonnull %call)
  %call.i = tail call ptr @sdsempty() #24
  %numlines.i = getelementptr inbounds i8, ptr %call, i64 16
  %5 = load i32, ptr %numlines.i, align 8
  %cmp10.i = icmp sgt i32 %5, 0
  br i1 %cmp10.i, label %for.body.lr.ph.i, label %rewriteConfigGetContentFromState.exit

for.body.lr.ph.i:                                 ; preds = %if.end20
  %lines.i = getelementptr inbounds i8, ptr %call, i64 24
  br label %for.body.i

for.body.i:                                       ; preds = %for.inc.i, %for.body.lr.ph.i
  %6 = phi i32 [ %5, %for.body.lr.ph.i ], [ %14, %for.inc.i ]
  %indvars.iv.i = phi i64 [ 0, %for.body.lr.ph.i ], [ %indvars.iv.next.i, %for.inc.i ]
  %was_empty.013.i = phi i32 [ 0, %for.body.lr.ph.i ], [ %was_empty.2.i, %for.inc.i ]
  %content.011.i = phi ptr [ %call.i, %for.body.lr.ph.i ], [ %content.1.i, %for.inc.i ]
  %7 = load ptr, ptr %lines.i, align 8
  %arrayidx.i = getelementptr inbounds ptr, ptr %7, i64 %indvars.iv.i
  %8 = load ptr, ptr %arrayidx.i, align 8
  %arrayidx.i.i = getelementptr inbounds i8, ptr %8, i64 -1
  %9 = load i8, ptr %arrayidx.i.i, align 1
  %conv.i.i = zext i8 %9 to i32
  %and.i.i = and i32 %conv.i.i, 7
  switch i32 %and.i.i, label %if.then.i [
    i32 0, label %sw.bb.i.i
    i32 1, label %sw.bb3.i.i
    i32 2, label %sw.bb5.i.i
    i32 3, label %sw.bb9.i.i
    i32 4, label %sw.bb13.i.i
  ]

sw.bb.i.i:                                        ; preds = %for.body.i
  %shr.i.i = lshr i32 %conv.i.i, 3
  %conv2.i.i = zext nneg i32 %shr.i.i to i64
  br label %sdslen.exit.i

sw.bb3.i.i:                                       ; preds = %for.body.i
  %add.ptr.i.i = getelementptr inbounds i8, ptr %8, i64 -3
  %10 = load i8, ptr %add.ptr.i.i, align 1
  %conv4.i.i = zext i8 %10 to i64
  br label %sdslen.exit.i

sw.bb5.i.i:                                       ; preds = %for.body.i
  %add.ptr6.i.i = getelementptr inbounds i8, ptr %8, i64 -5
  %11 = load i16, ptr %add.ptr6.i.i, align 1
  %conv8.i.i = zext i16 %11 to i64
  br label %sdslen.exit.i

sw.bb9.i.i:                                       ; preds = %for.body.i
  %add.ptr10.i.i = getelementptr inbounds i8, ptr %8, i64 -9
  %12 = load i32, ptr %add.ptr10.i.i, align 1
  %conv12.i.i = zext i32 %12 to i64
  br label %sdslen.exit.i

sw.bb13.i.i:                                      ; preds = %for.body.i
  %add.ptr14.i.i = getelementptr inbounds i8, ptr %8, i64 -17
  %13 = load i64, ptr %add.ptr14.i.i, align 1
  br label %sdslen.exit.i

sdslen.exit.i:                                    ; preds = %sw.bb13.i.i, %sw.bb9.i.i, %sw.bb5.i.i, %sw.bb3.i.i, %sw.bb.i.i
  %retval.0.i.i = phi i64 [ %13, %sw.bb13.i.i ], [ %conv12.i.i, %sw.bb9.i.i ], [ %conv8.i.i, %sw.bb5.i.i ], [ %conv4.i.i, %sw.bb3.i.i ], [ %conv2.i.i, %sw.bb.i.i ]
  %cmp2.i = icmp eq i64 %retval.0.i.i, 0
  br i1 %cmp2.i, label %if.then.i, label %if.end4.i

if.then.i:                                        ; preds = %sdslen.exit.i, %for.body.i
  %tobool.not.i = icmp eq i32 %was_empty.013.i, 0
  br i1 %tobool.not.i, label %if.end4.i, label %for.inc.i

if.end4.i:                                        ; preds = %if.then.i, %sdslen.exit.i
  %was_empty.1.i = phi i32 [ 1, %if.then.i ], [ 0, %sdslen.exit.i ]
  %call8.i = tail call ptr @sdscatsds(ptr noundef %content.011.i, ptr noundef nonnull %8) #24
  %call9.i = tail call ptr @sdscatlen(ptr noundef %call8.i, ptr noundef nonnull @.str.55, i64 noundef 1) #24
  %.pre.i = load i32, ptr %numlines.i, align 8
  br label %for.inc.i

for.inc.i:                                        ; preds = %if.end4.i, %if.then.i
  %14 = phi i32 [ %6, %if.then.i ], [ %.pre.i, %if.end4.i ]
  %content.1.i = phi ptr [ %content.011.i, %if.then.i ], [ %call9.i, %if.end4.i ]
  %was_empty.2.i = phi i32 [ 1, %if.then.i ], [ %was_empty.1.i, %if.end4.i ]
  %indvars.iv.next.i = add nuw nsw i64 %indvars.iv.i, 1
  %15 = sext i32 %14 to i64
  %cmp.i = icmp slt i64 %indvars.iv.next.i, %15
  br i1 %cmp.i, label %for.body.i, label %rewriteConfigGetContentFromState.exit, !llvm.loop !38

rewriteConfigGetContentFromState.exit:            ; preds = %for.inc.i, %if.end20
  %content.0.lcssa.i = phi ptr [ %call.i, %if.end20 ], [ %content.1.i, %for.inc.i ]
  %16 = load ptr, ptr getelementptr inbounds (%struct.redisServer, ptr @server, i64 0, i32 2), align 8
  %call22 = tail call i32 @rewriteConfigOverwriteFile(ptr noundef %16, ptr noundef %content.0.lcssa.i), !range !44
  tail call void @sdsfree(ptr noundef %content.0.lcssa.i) #24
  %lines.i14 = getelementptr inbounds i8, ptr %call, i64 24
  %17 = load ptr, ptr %lines.i14, align 8
  %18 = load i32, ptr %numlines.i, align 8
  tail call void @sdsfreesplitres(ptr noundef %17, i32 noundef %18) #24
  %19 = load ptr, ptr %call, align 8
  tail call void @dictRelease(ptr noundef %19) #24
  %rewritten.i = getelementptr inbounds i8, ptr %call, i64 8
  %20 = load ptr, ptr %rewritten.i, align 8
  tail call void @dictRelease(ptr noundef %20) #24
  tail call void @zfree(ptr noundef nonnull %call) #24
  br label %return

return:                                           ; preds = %entry, %rewriteConfigGetContentFromState.exit
  %retval.0 = phi i32 [ %call22, %rewriteConfigGetContentFromState.exit ], [ -1, %entry ]
  ret i32 %retval.0
}